target datalayout = "e-m:e-p270:32:32-p271:32:32-p272:64:64-i64:64-i128:128-f80:128-n8:16:32:64-S128"
target triple = "x86_64-unknown-linux-gnu"

%struct.E1000State_st = type { %struct.PCIDevice, ptr, %struct.NICConf, %struct.MemoryRegion, %struct.MemoryRegion, [32768 x i32], [32 x i16], [64 x i16], i32, i32, %struct.e1000_tx, %struct.anon, ptr, ptr, i8, i8, i32, ptr, i32, i8, i8, %struct.e1000x_txd_props }
%struct.PCIDevice = type { %struct.DeviceState, i8, i8, ptr, ptr, ptr, ptr, ptr, i32, %struct.PCIReqIDCache, [64 x i8], [7 x %struct.PCIIORegion], %struct.AddressSpace, %struct.MemoryRegion, %struct.MemoryRegion, ptr, ptr, [3 x ptr], i8, i8, i32, i8, i32, ptr, ptr, ptr, ptr, ptr, ptr, %struct.MemoryRegion, %struct.MemoryRegion, %struct.MemoryRegion, ptr, i8, i32, i8, %struct.PCIExpressDevice, ptr, ptr, i32, i8, %struct.MemoryRegion, i32, ptr, ptr, ptr, ptr, ptr, i32 }
%struct.DeviceState = type { %struct.Object, ptr, ptr, i8, i8, i64, ptr, i32, i8, ptr, %struct.NamedGPIOListHead, %struct.NamedClockListHead, %struct.BusStateHead, i32, i32, i32, %struct.ResettableState, ptr, %struct.MemReentrancyGuard }
%struct.Object = type { ptr, ptr, ptr, i32, ptr }
%struct.NamedGPIOListHead = type { ptr }
%struct.NamedClockListHead = type { ptr }
%struct.BusStateHead = type { ptr }
%struct.ResettableState = type { i32, i8, i8 }
%struct.MemReentrancyGuard = type { i8 }
%struct.PCIReqIDCache = type { ptr, i32 }
%struct.PCIIORegion = type { i64, i64, i8, ptr, ptr }
%struct.AddressSpace = type { %struct.rcu_head, ptr, ptr, ptr, i32, i32, ptr, %union.anon, %union.anon.0 }
%struct.rcu_head = type { ptr, ptr }
%union.anon = type { %struct.QTailQLink }
%struct.QTailQLink = type { ptr, ptr }
%union.anon.0 = type { %struct.QTailQLink }
%struct.PCIExpressDevice = type { i8, i8, i8, i16, %struct.PCIEAERLog, i16, i16, i16, %struct.PCIESriovPF, %struct.PCIESriovVF }
%struct.PCIEAERLog = type { i16, i16, ptr }
%struct.PCIESriovPF = type { i16, [7 x i8], ptr, ptr }
%struct.PCIESriovVF = type { ptr, i16 }
%struct.NICConf = type { %struct.MACAddr, %struct.NICPeers, i32 }
%struct.MACAddr = type { [6 x i8] }
%struct.NICPeers = type { [1024 x ptr], i32 }
%struct.MemoryRegion = type { %struct.Object, i8, i8, i8, i8, i8, i8, i8, i8, i8, i8, ptr, ptr, ptr, ptr, ptr, ptr, i32, i128, i64, ptr, i64, i8, i8, i8, i8, i8, ptr, i64, i32, %union.anon.1, %union.anon.2, %union.anon.3, ptr, i32, ptr, ptr, i8 }
%union.anon.1 = type { %struct.QTailQLink }
%union.anon.2 = type { %struct.QTailQLink }
%union.anon.3 = type { %struct.QTailQLink }
%struct.e1000_tx = type { [256 x i8], [4 x i8], [4 x i8], [65536 x i8], i16, i8, i8, i8, %struct.e1000x_txd_props, %struct.e1000x_txd_props, i16, i8 }
%struct.anon = type { i32, i16, i16, i16, i32 }
%struct.e1000x_txd_props = type { i8, i8, i16, i8, i8, i16, i32, i8, i16, i8, i8, i8 }
%struct.NetClientState = type { ptr, i32, %union.anon.17, ptr, ptr, ptr, ptr, [256 x i8], i8, ptr, i32, i8, i32, i32, i8, i8, i8, %union.anon.18 }
%union.anon.17 = type { %struct.QTailQLink }
%union.anon.18 = type { %struct.QTailQLink }

; Function Attrs: nounwind sspstrong uwtable
define internal void @e1000x_update_regs_on_link_up(ptr noundef %mac, ptr noundef %phy) #0 {
entry:
  %mac.addr = alloca ptr, align 8
  %phy.addr = alloca ptr, align 8
  store ptr %mac, ptr %mac.addr, align 8
  store ptr %phy, ptr %phy.addr, align 8
  %0 = load ptr, ptr %mac.addr, align 8
  %arrayidx = getelementptr i32, ptr %0, i64 2
  %1 = load i32, ptr %arrayidx, align 4
  %or = or i32 %1, 2
  store i32 %or, ptr %arrayidx, align 4
  %2 = load ptr, ptr %phy.addr, align 8
  %arrayidx1 = getelementptr i16, ptr %2, i64 1
  %3 = load i16, ptr %arrayidx1, align 2
  %conv = zext i16 %3 to i32
  %or2 = or i32 %conv, 4
  %conv3 = trunc i32 %or2 to i16
  store i16 %conv3, ptr %arrayidx1, align 2
  ret void
}

; Function Attrs: nounwind sspstrong uwtable
define internal void @set_ics(ptr noundef %s, i32 noundef %index, i32 noundef %val) #0 {
entry:
  %s.addr = alloca ptr, align 8
  %index.addr = alloca i32, align 4
  %val.addr = alloca i32, align 4
  store ptr %s, ptr %s.addr, align 8
  store i32 %index, ptr %index.addr, align 4
  store i32 %val, ptr %val.addr, align 4
  br label %do.body

do.body:                                          ; preds = %entry
  br label %do.end

do.end:                                           ; preds = %do.body
  %0 = load ptr, ptr %s.addr, align 8
  %1 = load i32, ptr %val.addr, align 4
  %2 = load ptr, ptr %s.addr, align 8
  %mac_reg = getelementptr inbounds %struct.E1000State_st, ptr %2, i32 0, i32 5
  %arrayidx = getelementptr [32768 x i32], ptr %mac_reg, i64 0, i64 48
  %3 = load i32, ptr %arrayidx, align 16
  %or = or i32 %1, %3
  call void @set_interrupt_cause(ptr noundef %0, i32 noundef 0, i32 noundef %or)
  ret void
}

; Function Attrs: nounwind sspstrong uwtable
define internal void @e1000_link_up(ptr noundef %s) #0 {
entry:
  %s.addr = alloca ptr, align 8
  store ptr %s, ptr %s.addr, align 8
  %0 = load ptr, ptr %s.addr, align 8
  %mac_reg = getelementptr inbounds %struct.E1000State_st, ptr %0, i32 0, i32 5
  %arraydecay = getelementptr inbounds [32768 x i32], ptr %mac_reg, i64 0, i64 0
  %1 = load ptr, ptr %s.addr, align 8
  %phy_reg = getelementptr inbounds %struct.E1000State_st, ptr %1, i32 0, i32 6
  %arraydecay1 = getelementptr inbounds [32 x i16], ptr %phy_reg, i64 0, i64 0
  call void @e1000x_update_regs_on_link_up(ptr noundef %arraydecay, ptr noundef %arraydecay1)
  %2 = load ptr, ptr %s.addr, align 8
  %nic = getelementptr inbounds %struct.E1000State_st, ptr %2, i32 0, i32 1
  %3 = load ptr, ptr %nic, align 16
  %call = call ptr @qemu_get_queue(ptr noundef %3)
  call void @qemu_flush_queued_packets(ptr noundef %call)
  ret void
}

; Function Attrs: nounwind sspstrong uwtable
define internal zeroext i1 @have_autoneg(ptr noundef %s) #0 {
entry:
  %s.addr = alloca ptr, align 8
  store ptr %s, ptr %s.addr, align 8
  %0 = load ptr, ptr %s.addr, align 8
  %phy_reg = getelementptr inbounds %struct.E1000State_st, ptr %0, i32 0, i32 6
  %arrayidx = getelementptr [32 x i16], ptr %phy_reg, i64 0, i64 0
  %1 = load i16, ptr %arrayidx, align 16
  %conv = zext i16 %1 to i32
  %and = and i32 %conv, 4096
  %tobool = icmp ne i32 %and, 0
  ret i1 %tobool
}

; Function Attrs: nounwind sspstrong uwtable
define internal void @e1000x_update_regs_on_link_down(ptr noundef %mac, ptr noundef %phy) #0 {
entry:
  %mac.addr = alloca ptr, align 8
  %phy.addr = alloca ptr, align 8
  store ptr %mac, ptr %mac.addr, align 8
  store ptr %phy, ptr %phy.addr, align 8
  %0 = load ptr, ptr %mac.addr, align 8
  %arrayidx = getelementptr i32, ptr %0, i64 2
  %1 = load i32, ptr %arrayidx, align 4
  %and = and i32 %1, -3
  store i32 %and, ptr %arrayidx, align 4
  %2 = load ptr, ptr %phy.addr, align 8
  %arrayidx1 = getelementptr i16, ptr %2, i64 1
  %3 = load i16, ptr %arrayidx1, align 2
  %conv = zext i16 %3 to i32
  %and2 = and i32 %conv, -5
  %conv3 = trunc i32 %and2 to i16
  store i16 %conv3, ptr %arrayidx1, align 2
  %4 = load ptr, ptr %phy.addr, align 8
  %arrayidx4 = getelementptr i16, ptr %4, i64 1
  %5 = load i16, ptr %arrayidx4, align 2
  %conv5 = zext i16 %5 to i32
  %and6 = and i32 %conv5, -33
  %conv7 = trunc i32 %and6 to i16
  store i16 %conv7, ptr %arrayidx4, align 2
  %6 = load ptr, ptr %phy.addr, align 8
  %arrayidx8 = getelementptr i16, ptr %6, i64 5
  %7 = load i16, ptr %arrayidx8, align 2
  %conv9 = zext i16 %7 to i32
  %and10 = and i32 %conv9, -16385
  %conv11 = trunc i32 %and10 to i16
  store i16 %conv11, ptr %arrayidx8, align 2
  ret void
}

; Function Attrs: nounwind sspstrong uwtable
define internal void @e1000_set_link_status(ptr noundef %nc) #0 {
entry:
  %nc.addr = alloca ptr, align 8
  %s = alloca ptr, align 8
  %old_status = alloca i32, align 4
  store ptr %nc, ptr %nc.addr, align 8
  %0 = load ptr, ptr %nc.addr, align 8
  %call = call ptr @qemu_get_nic_opaque(ptr noundef %0)
  store ptr %call, ptr %s, align 8
  %1 = load ptr, ptr %s, align 8
  %mac_reg = getelementptr inbounds %struct.E1000State_st, ptr %1, i32 0, i32 5
  %arrayidx = getelementptr [32768 x i32], ptr %mac_reg, i64 0, i64 2
  %2 = load i32, ptr %arrayidx, align 8
  store i32 %2, ptr %old_status, align 4
  %3 = load ptr, ptr %nc.addr, align 8
  %link_down = getelementptr inbounds %struct.NetClientState, ptr %3, i32 0, i32 1
  %4 = load i32, ptr %link_down, align 8
  %tobool = icmp ne i32 %4, 0
  br i1 %tobool, label %if.then, label %if.else

if.then:                                          ; preds = %entry
  %5 = load ptr, ptr %s, align 8
  %mac_reg1 = getelementptr inbounds %struct.E1000State_st, ptr %5, i32 0, i32 5
  %arraydecay = getelementptr inbounds [32768 x i32], ptr %mac_reg1, i64 0, i64 0
  %6 = load ptr, ptr %s, align 8
  %phy_reg = getelementptr inbounds %struct.E1000State_st, ptr %6, i32 0, i32 6
  %arraydecay2 = getelementptr inbounds [32 x i16], ptr %phy_reg, i64 0, i64 0
  call void @e1000x_update_regs_on_link_down(ptr noundef %arraydecay, ptr noundef %arraydecay2)
  br label %if.end13

if.else:                                          ; preds = %entry
  %7 = load ptr, ptr %s, align 8
  %call3 = call zeroext i1 @have_autoneg(ptr noundef %7)
  br i1 %call3, label %land.lhs.true, label %if.else12

land.lhs.true:                                    ; preds = %if.else
  %8 = load ptr, ptr %s, align 8
  %phy_reg4 = getelementptr inbounds %struct.E1000State_st, ptr %8, i32 0, i32 6
  %arrayidx5 = getelementptr [32 x i16], ptr %phy_reg4, i64 0, i64 1
  %9 = load i16, ptr %arrayidx5, align 2
  %conv = zext i16 %9 to i32
  %and = and i32 %conv, 32
  %tobool6 = icmp ne i32 %and, 0
  br i1 %tobool6, label %if.else12, label %if.then7

if.then7:                                         ; preds = %land.lhs.true
  %10 = load ptr, ptr %s, align 8
  %mac_reg8 = getelementptr inbounds %struct.E1000State_st, ptr %10, i32 0, i32 5
  %arraydecay9 = getelementptr inbounds [32768 x i32], ptr %mac_reg8, i64 0, i64 0
  %11 = load ptr, ptr %s, align 8
  %phy_reg10 = getelementptr inbounds %struct.E1000State_st, ptr %11, i32 0, i32 6
  %arraydecay11 = getelementptr inbounds [32 x i16], ptr %phy_reg10, i64 0, i64 0
  %12 = load ptr, ptr %s, align 8
  %autoneg_timer = getelementptr inbounds %struct.E1000State_st, ptr %12, i32 0, i32 12
  %13 = load ptr, ptr %autoneg_timer, align 8
  call void @e1000x_restart_autoneg(ptr noundef %arraydecay9, ptr noundef %arraydecay11, ptr noundef %13)
  br label %if.end

if.else12:                                        ; preds = %land.lhs.true, %if.else
  %14 = load ptr, ptr %s, align 8
  call void @e1000_link_up(ptr noundef %14)
  br label %if.end

if.end:                                           ; preds = %if.else12, %if.then7
  br label %if.end13

if.end13:                                         ; preds = %if.end, %if.then
  %15 = load ptr, ptr %s, align 8
  %mac_reg14 = getelementptr inbounds %struct.E1000State_st, ptr %15, i32 0, i32 5
  %arrayidx15 = getelementptr [32768 x i32], ptr %mac_reg14, i64 0, i64 2
  %16 = load i32, ptr %arrayidx15, align 8
  %17 = load i32, ptr %old_status, align 4
  %cmp = icmp ne i32 %16, %17
  br i1 %cmp, label %if.then17, label %if.end18

if.then17:                                        ; preds = %if.end13
  %18 = load ptr, ptr %s, align 8
  call void @set_ics(ptr noundef %18, i32 noundef 0, i32 noundef 4)
  br label %if.end18

if.end18:                                         ; preds = %if.then17, %if.end13
  ret void
}