; Function Attrs: nounwind sspstrong uwtable
define internal void @e1000_set_link_status(ptr noundef %nc) #0 {
entry:
  %call = tail call ptr @qemu_get_nic_opaque(ptr noundef %nc) #13
  %mac_reg = getelementptr inbounds nuw i8, ptr %call, i64 11376
  %arrayidx = getelementptr i8, ptr %call, i64 11384
  %0 = load i32, ptr %arrayidx, align 8
  %link_down = getelementptr inbounds nuw i8, ptr %nc, i64 8
  %1 = load i32, ptr %link_down, align 8
  %tobool.not = icmp eq i32 %1, 0
  br i1 %tobool.not, label %if.else, label %if.then

if.then:                                          ; preds = %entry
  %and.i = and i32 %0, -3
  store i32 %and.i, ptr %arrayidx, align 4
  %arrayidx1.i = getelementptr i8, ptr %call, i64 142450
  %2 = load i16, ptr %arrayidx1.i, align 2
  %3 = and i16 %2, -37
  store i16 %3, ptr %arrayidx1.i, align 2
  %arrayidx8.i = getelementptr i8, ptr %call, i64 142458
  %4 = load i16, ptr %arrayidx8.i, align 2
  %5 = and i16 %4, -16385
  store i16 %5, ptr %arrayidx8.i, align 2
  br label %if.end13

if.else:                                          ; preds = %entry
  %6 = getelementptr i8, ptr %call, i64 142448
  %call.val = load i16, ptr %6, align 16
  %7 = and i16 %call.val, 4096
  %tobool.i.not = icmp ne i16 %7, 0
  %arrayidx1.i.i.phi.trans.insert = getelementptr i8, ptr %call, i64 142450
  %.pre = load i16, ptr %arrayidx1.i.i.phi.trans.insert, align 2
  %8 = and i16 %.pre, 32
  %tobool6.not = icmp eq i16 %8, 0
  %or.cond = select i1 %tobool.i.not, i1 %tobool6.not, i1 false
  br i1 %or.cond, label %if.then7, label %if.else12

if.then7:                                         ; preds = %if.else
  %autoneg_timer = getelementptr inbounds nuw i8, ptr %call, i64 208520
  %9 = load ptr, ptr %autoneg_timer, align 8
  tail call void @e1000x_restart_autoneg(ptr noundef nonnull %mac_reg, ptr noundef nonnull %6, ptr noundef %9) #13
  br label %if.end13

if.else12:                                        ; preds = %if.else
  %or.i.i = or i32 %0, 2
  store i32 %or.i.i, ptr %arrayidx, align 4
  %arrayidx1.i.i = getelementptr i8, ptr %call, i64 142450
  %10 = or i16 %.pre, 4
  store i16 %10, ptr %arrayidx1.i.i, align 2
  %nic.i = getelementptr inbounds nuw i8, ptr %call, i64 2608
  %11 = load ptr, ptr %nic.i, align 16
  %call.i = tail call ptr @qemu_get_queue(ptr noundef %11) #13
  tail call void @qemu_flush_queued_packets(ptr noundef %call.i) #13
  br label %if.end13

if.end13:                                         ; preds = %if.then7, %if.else12, %if.then
  %12 = load i32, ptr %arrayidx, align 8
  %cmp.not = icmp eq i32 %12, %0
  br i1 %cmp.not, label %if.end18, label %if.then17

if.then17:                                        ; preds = %if.end13
  %arrayidx.i12 = getelementptr i8, ptr %call, i64 11568
  %13 = load i32, ptr %arrayidx.i12, align 16
  %or.i = or i32 %13, 4
  tail call fastcc void @set_interrupt_cause(ptr noundef nonnull %call, i32 noundef %or.i)
  br label %if.end18

if.end18:                                         ; preds = %if.then17, %if.end13
  ret void
}